; Function Attrs: mustprogress nofree norecurse nosync nounwind willreturn memory(argmem: read) uwtable
define hidden noundef zeroext i1 @_ZNK3ue219AsciiComponentClass11class_emptyEv(ptr nocapture noundef nonnull readonly align 8 dereferenceable(72) %this) unnamed_addr #5 align 2 {
entry:
  %cr = getelementptr inbounds i8, ptr %this, i64 40
  br label %for.body.i.i

for.body.i.i:                                     ; preds = %for.body.i.i, %entry
  %__begin0.0.idx4.i.i = phi i64 [ 0, %entry ], [ %__begin0.0.add.i.i, %for.body.i.i ]
  %__begin0.0.ptr.i.i = getelementptr inbounds i8, ptr %cr, i64 %__begin0.0.idx4.i.i
  %0 = load i64, ptr %__begin0.0.ptr.i.i, align 8
  %cmp3.not.i.i = icmp eq i64 %0, 0
  %__begin0.0.add.i.i = add nuw nsw i64 %__begin0.0.idx4.i.i, 8
  %cmp.not.i.i = icmp ne i64 %__begin0.0.add.i.i, 32
  %or.cond.not.i.i = select i1 %cmp3.not.i.i, i1 %cmp.not.i.i, i1 false
  br i1 %or.cond.not.i.i, label %for.body.i.i, label %_ZNK3ue29CharReach4noneEv.exit

_ZNK3ue29CharReach4noneEv.exit:                   ; preds = %for.body.i.i
  ret i1 %cmp3.not.i.i
}